(dp1
I1
(lp2
I180
aI183
aI180
aI191
aI180
aI173
aI193
aI180
aI165
aI180
aI185
aI173
aI170
aI188
aI163
aI163
aI170
aI175
aI188
aI173
aI180
aI185
aI175
aI185
aI198
aI173
aI178
aI183
aI183
aI170
aI178
aI168
aI191
aI180
aI183
aI175
aI173
aI180
aI180
aI178
aI170
aI168
aI180
aI170
aI180
aI168
aI183
aI188
aI178
aI185
aI175
aI178
aI178
aI178
aI175
aI183
aI183
aI180
aI180
aI183
aI180
aI175
aI178
aI170
aI183
aI168
aI183
aI178
aI183
aI165
aI188
aI193
aI180
aI165
aI180
aI185
aI180
aI180
aI175
aI178
aI183
aI178
aI188
aI178
aI183
aI183
aI178
aI185
aI175
aI163
aI175
aI183
aI180
aI191
aI178
aI183
aI178
aI175
aI170
aI188
aI170
aI203
aI175
aI168
aI188
aI183
aI183
aI180
aI170
aI191
aI170
aI185
aI175
aI170
aI193
aI180
aI193
aI180
aI173
aI173
aI178
aI183
aI183
aI178
aI165
aI173
aI191
aI173
aI170
aI183
aI188
aI175
aI183
aI178
aI188
aI175
aI178
aI175
aI185
aI185
aI175
aI178
aI183
aI193
aI178
aI196
aI185
aI180
aI170
aI180
aI137
aI193
aI173
aI183
aI178
aI185
aI170
aI183
aI183
aI183
aI188
aI185
aI183
aI185
aI183
aI188
aI170
aI175
aI183
aI170
aI196
aI170
aI180
aI185
aI178
aI178
aI183
aI173
aI183
aI188
aI180
aI178
aI185
aI173
aI180
aI175
aI180
aI170
aI183
aI198
aI188
aI173
aI191
aI178
aI170
aI183
aI183
aI185
aI185
aI193
aI180
aI188
aI180
aI180
aI188
aI180
aI170
aI188
aI170
aI183
aI178
aI170
aI185
aI175
aI196
aI170
aI183
aI178
aI180
aI193
aI183
aI168
aI185
aI175
aI173
aI165
aI165
aI178
aI178
aI173
aI188
aI185
aI180
aI178
aI185
aI188
aI173
aI168
aI183
aI191
aI183
aI180
aI183
aI193
aI180
aI180
aI183
aI183
aI193
aI193
aI180
aI188
aI180
aI175
aI173
aI188
aI178
aI185
aI191
aI191
aI191
aI157
aI175
aI193
aI178
aI173
aI170
aI175
aI178
aI178
aI188
aI183
aI183
aI157
aI191
aI188
aI180
aI178
aI165
aI191
aI188
aI185
aI175
aI185
aI180
aI175
aI178
aI180
aI165
aI188
aI183
aI183
aI173
aI183
aI178
aI198
aI165
aI196
aI175
aI191
aI180
aI173
aI183
aI175
aI183
aI170
aI175
aI191
aI173
aI175
aI183
aI175
aI163
aI170
aI178
aI188
aI175
aI175
aI183
aI170
aI178
aI168
aI183
aI170
aI183
aI183
aI180
aI188
aI188
aI178
aI173
aI188
aI183
aI183
aI180
aI173
aI180
aI178
asI2
(lp3
I155
aI170
aI173
aI157
aI157
aI155
aI155
aI165
aI163
aI155
aI170
aI165
aI160
aI160
aI175
aI163
aI157
aI150
aI157
aI165
aI168
aI163
aI157
aI175
aI155
aI155
aI175
aI163
aI160
aI168
aI160
aI155
aI163
aI170
aI160
aI165
aI160
aI157
aI163
aI175
aI160
aI170
aI170
aI160
aI165
aI157
aI168
aI165
aI165
aI165
aI170
aI168
aI157
aI155
aI170
aI168
aI152
aI168
aI163
aI152
aI155
aI163
aI157
aI165
aI160
aI163
aI165
aI170
aI170
aI160
aI170
aI163
aI175
aI165
aI163
aI155
aI157
aI155
aI165
aI168
aI157
aI170
aI160
aI168
aI168
aI160
aI170
aI163
aI160
aI173
aI160
aI155
aI173
aI163
aI168
aI155
aI178
aI160
aI157
aI173
aI178
aI170
aI191
aI157
aI163
aI155
aI163
aI173
aI160
aI168
aI163
aI168
aI163
aI165
aI175
aI168
aI160
aI173
aI170
aI170
aI157
aI173
aI165
aI163
aI168
aI168
aI180
aI168
aI160
aI163
aI168
aI168
aI165
aI152
aI165
aI163
aI160
aI163
aI168
aI152
aI168
aI165
aI150
aI173
aI155
aI157
aI170
aI152
aI165
aI180
aI160
aI160
aI160
aI168
aI157
aI165
aI165
aI170
aI168
aI155
aI170
aI165
aI163
aI160
aI175
aI173
aI157
aI168
aI160
aI170
aI170
aI165
aI157
aI178
aI157
aI163
aI157
aI157
aI165
aI168
aI160
aI170
aI160
aI168
aI160
aI168
aI170
aI157
aI163
aI160
aI173
aI178
aI163
aI170
aI165
aI152
aI157
aI157
aI160
aI165
aI157
aI160
aI163
aI168
aI157
aI168
aI175
aI168
aI163
aI170
aI160
aI157
aI165
aI163
aI160
aI170
aI168
aI163
aI165
aI163
aI165
aI168
aI150
aI168
aI168
aI165
aI170
aI152
aI165
aI168
aI150
aI170
aI170
aI170
aI160
aI155
aI165
aI155
aI165
aI168
aI163
aI163
aI173
aI160
aI165
aI165
aI157
aI165
aI152
aI157
aI163
aI175
aI163
aI168
aI160
aI157
aI160
aI152
aI155
aI163
aI160
aI163
aI168
aI160
aI170
aI155
aI160
aI157
aI165
aI157
aI168
aI157
aI170
aI175
aI168
aI175
aI155
aI168
aI157
aI165
aI175
aI157
aI157
aI160
aI157
aI165
aI165
aI170
aI170
aI175
aI168
aI155
aI160
aI173
aI170
aI157
aI170
aI160
aI163
aI152
aI163
aI165
aI165
aI160
aI155
aI165
aI160
aI163
aI163
aI168
aI173
aI157
aI157
aI157
aI170
aI157
aI163
aI160
aI163
aI152
aI165
aI157
aI170
aI165
aI168
aI170
aI150
aI165
aI170
aI163
aI163
aI157
aI165
aI160
aI160
aI160
aI165
aI165
aI178
aI170
aI147
aI165
aI157
aI170
aI160
aI163
aI168
aI157
aI196
aI165
aI168
aI168
aI163
aI170
aI168
aI168
aI170
aI157
aI152
aI157
aI165
aI173
aI160
aI157
aI160
aI165
aI163
aI157
aI168
aI168
aI170
aI165
aI165
aI170
aI160
aI165
aI160
aI175
aI173
aI160
aI165
aI173
aI175
aI168
aI168
aI152
aI168
aI168
aI173
aI163
aI168
aI160
aI152
aI173
aI160
aI170
aI165
aI165
aI175
aI163
aI163
aI173
aI160
aI168
aI168
aI168
aI157
aI160
aI150
aI155
aI165
aI152
aI160
aI163
aI168
aI163
aI165
aI150
aI163
aI173
aI178
aI165
aI170
aI168
aI157
aI168
aI163
aI157
aI150
aI155
aI163
aI165
aI165
aI168
aI165
aI160
aI157
aI157
aI157
aI152
aI178
aI175
aI165
aI168
aI175
aI163
aI168
aI170
aI157
aI165
aI160
aI168
aI170
aI152
aI163
aI165
aI163
aI163
aI178
aI168
aI175
aI165
aI157
aI178
aI155
aI157
aI170
aI160
aI170
aI175
aI173
aI170
aI163
aI168
aI163
aI168
aI163
aI157
aI163
aI157
aI157
aI168
aI165
aI165
aI157
aI170
aI160
aI170
aI163
aI160
aI168
aI170
aI150
aI168
aI155
aI157
aI165
aI155
aI168
aI180
aI170
aI175
aI160
aI168
aI157
aI175
aI168
aI160
aI163
aI155
aI170
aI157
aI165
aI173
aI160
aI173
aI165
aI160
aI170
aI155
aI160
aI163
aI160
aI160
aI163
aI155
aI160
aI173
aI165
aI157
aI178
aI173
aI165
aI163
aI163
aI165
aI163
aI173
aI160
aI163
aI165
aI165
aI150
aI155
aI155
aI160
aI157
aI163
aI168
aI168
aI170
aI165
aI168
aI170
aI157
aI163
aI163
aI157
aI168
aI168
aI163
aI168
aI160
aI163
aI165
aI160
aI173
aI152
aI168
aI160
aI168
aI160
aI157
aI155
aI170
aI152
aI157
aI155
aI150
aI163
aI160
aI163
aI175
aI157
aI165
aI157
aI165
aI160
aI155
aI163
aI180
aI165
aI163
aI157
aI165
aI160
aI163
aI157
aI168
aI160
aI155
aI165
aI173
aI163
aI152
aI160
aI157
aI155
aI152
aI173
aI157
aI168
aI165
aI175
aI155
aI160
aI163
aI157
aI160
aI165
aI165
aI170
aI163
aI157
aI155
aI173
aI173
aI168
aI168
aI170
aI160
aI165
aI165
aI168
aI168
aI165
aI155
aI165
aI152
aI168
aI160
aI173
aI155
aI157
aI165
aI155
aI165
aI170
aI160
aI160
aI170
aI168
aI168
aI157
aI155
as.