(dp1
I1
(lp2
I180
aI183
aI180
aI191
aI180
aI173
aI193
aI180
aI165
aI180
aI185
aI173
aI170
aI188
aI163
aI163
aI170
aI175
aI188
aI173
aI180
aI185
aI175
aI185
aI198
aI173
aI178
asI2
(lp3
I155
aI170
aI173
aI157
aI157
aI155
aI155
aI165
aI163
aI155
aI170
aI165
aI160
aI160
aI175
aI163
aI157
aI150
aI157
aI165
aI168
aI163
aI157
aI175
aI155
aI155
aI175
aI163
aI160
aI168
aI160
aI155
aI163
aI170
aI160
aI165
aI160
aI157
aI163
aI175
aI160
aI170
aI170
aI160
aI165
aI157
aI168
aI165
aI165
aI165
aI170
aI168
aI157
aI155
aI170
aI168
aI152
aI168
aI163
aI152
aI155
aI163
aI157
aI165
aI160
aI163
aI165
aI170
aI170
aI160
aI170
as.